target datalayout = "e-m:e-p270:32:32-p271:32:32-p272:64:64-i64:64-i128:128-f80:128-n8:16:32:64-S128"
target triple = "x86_64-pc-linux-gnu"

%struct.AVFormatContext = type { ptr, ptr, ptr, ptr, ptr, i32, i32, ptr, i32, ptr, i32, ptr, ptr, i64, i64, i64, i32, i32, i32, i64, i64, ptr, i32, i32, ptr, i32, i32, i32, i32, ptr, i64, i32, i32, %struct.AVIOInterruptCB, i32, i32, i32, i32, i64, i32, i32, i32, i32, i32, i32, i32, i32, i32, i32, i32, i32, i64, i32, i32, i32, i32, i32, ptr, ptr, ptr, ptr, i32, ptr, ptr, ptr, ptr, i32, ptr, ptr, i64, ptr, ptr, ptr, i64 }
%struct.AVIOInterruptCB = type { ptr, ptr }
%struct.ogg = type { ptr, i32, i32, i32, i64, ptr }
%struct.ogg_stream = type { ptr, i32, i32, i32, i32, i32, i32, i32, i64, i64, i64, i64, i64, i64, i32, ptr, i32, i32, i32, [255 x i8], i32, i32, i32, i32, i32, i32, i32, i32, ptr, i64, ptr }

@.str = private unnamed_addr constant [6 x i8] c"\7FFLAC\00", align 1

; Function Attrs: nounwind uwtable
define internal i32 @flac_packet(ptr noundef %0, i32 noundef %1) #0 {
  %3 = alloca i32, align 4
  %4 = alloca ptr, align 8
  %5 = alloca i32, align 4
  %6 = alloca ptr, align 8
  %7 = alloca ptr, align 8
  %8 = alloca i32, align 4
  store ptr %0, ptr %4, align 8, !tbaa !4
  store i32 %1, ptr %5, align 4, !tbaa !9
  call void @llvm.lifetime.start.p0(i64 8, ptr %6) #8
  %9 = load ptr, ptr %4, align 8, !tbaa !4
  %10 = getelementptr inbounds nuw %struct.AVFormatContext, ptr %9, i32 0, i32 3
  %11 = load ptr, ptr %10, align 8, !tbaa !11
  store ptr %11, ptr %6, align 8, !tbaa !27
  call void @llvm.lifetime.start.p0(i64 8, ptr %7) #8
  %12 = load ptr, ptr %6, align 8, !tbaa !27
  %13 = getelementptr inbounds nuw %struct.ogg, ptr %12, i32 0, i32 0
  %14 = load ptr, ptr %13, align 8, !tbaa !29
  %15 = load i32, ptr %5, align 4, !tbaa !9
  %16 = sext i32 %15 to i64
  %17 = getelementptr inbounds %struct.ogg_stream, ptr %14, i64 %16
  store ptr %17, ptr %7, align 8, !tbaa !33
  %18 = load ptr, ptr %7, align 8, !tbaa !33
  %19 = getelementptr inbounds nuw %struct.ogg_stream, ptr %18, i32 0, i32 4
  %20 = load i32, ptr %19, align 4, !tbaa !42
  %21 = zext i32 %20 to i64
  %22 = icmp ugt i64 %21, 5
  br i1 %22, label %23, label %35

23:                                               ; preds = %2
  %24 = load ptr, ptr %7, align 8, !tbaa !33
  %25 = getelementptr inbounds nuw %struct.ogg_stream, ptr %24, i32 0, i32 0
  %26 = load ptr, ptr %25, align 8, !tbaa !37
  %27 = load ptr, ptr %7, align 8, !tbaa !33
  %28 = getelementptr inbounds nuw %struct.ogg_stream, ptr %27, i32 0, i32 3
  %29 = load i32, ptr %28, align 8, !tbaa !40
  %30 = zext i32 %29 to i64
  %31 = getelementptr inbounds nuw i8, ptr %26, i64 %30
  %32 = call i32 @memcmp(ptr noundef %31, ptr noundef @.str, i64 noundef 5) #9
  %33 = icmp ne i32 %32, 0
  br i1 %33, label %35, label %34

34:                                               ; preds = %23
  store i32 1, ptr %3, align 4
  store i32 1, ptr %8, align 4
  br label %55

35:                                               ; preds = %23, %2
  %36 = load ptr, ptr %7, align 8, !tbaa !33
  %37 = getelementptr inbounds nuw %struct.ogg_stream, ptr %36, i32 0, i32 4
  %38 = load i32, ptr %37, align 4, !tbaa !42
  %39 = icmp ugt i32 %38, 0
  br i1 %39, label %40, label %54

40:                                               ; preds = %35
  %41 = load ptr, ptr %7, align 8, !tbaa !33
  %42 = getelementptr inbounds nuw %struct.ogg_stream, ptr %41, i32 0, i32 0
  %43 = load ptr, ptr %42, align 8, !tbaa !37
  %44 = load ptr, ptr %7, align 8, !tbaa !33
  %45 = getelementptr inbounds nuw %struct.ogg_stream, ptr %44, i32 0, i32 3
  %46 = load i32, ptr %45, align 8, !tbaa !40
  %47 = zext i32 %46 to i64
  %48 = getelementptr inbounds nuw i8, ptr %43, i64 %47
  %49 = load i8, ptr %48, align 1, !tbaa !41
  %50 = zext i8 %49 to i32
  %51 = and i32 %50, 127
  %52 = icmp eq i32 %51, 4
  br i1 %52, label %53, label %54

53:                                               ; preds = %40
  store i32 1, ptr %3, align 4
  store i32 1, ptr %8, align 4
  br label %55

54:                                               ; preds = %40, %35
  store i32 0, ptr %3, align 4
  store i32 1, ptr %8, align 4
  br label %55

55:                                               ; preds = %54, %53, %34
  call void @llvm.lifetime.end.p0(i64 8, ptr %7) #8
  call void @llvm.lifetime.end.p0(i64 8, ptr %6) #8
  %56 = load i32, ptr %3, align 4
  ret i32 %56
}