; Function Attrs: mustprogress nofree norecurse nounwind willreturn memory(read, inaccessiblemem: none) uwtable
define internal range(i32 0, 2) i32 @flac_packet(ptr noundef readonly captures(none) %0, i32 noundef %1) #1 {
  %3 = getelementptr inbounds nuw i8, ptr %0, i64 24
  %4 = load ptr, ptr %3, align 8, !tbaa !4
  %5 = load ptr, ptr %4, align 8, !tbaa !24
  %6 = sext i32 %1 to i64
  %7 = getelementptr inbounds %struct.ogg_stream, ptr %5, i64 %6
  %8 = getelementptr inbounds nuw i8, ptr %7, i64 20
  %9 = load i32, ptr %8, align 4, !tbaa !36
  %10 = icmp ugt i32 %9, 5
  br i1 %10, label %11, label %17

11:                                               ; preds = %2
  %12 = load ptr, ptr %7, align 8, !tbaa !31
  %13 = getelementptr inbounds nuw i8, ptr %7, i64 16
  %14 = load i32, ptr %13, align 8, !tbaa !34
  %15 = zext i32 %14 to i64
  %16 = getelementptr inbounds nuw i8, ptr %12, i64 %15
  %bcmp = tail call i32 @bcmp(ptr noundef nonnull dereferenceable(5) %16, ptr noundef nonnull dereferenceable(5) @.str, i64 5)
  %.not = icmp eq i32 %bcmp, 0
  br i1 %.not, label %24, label %.thread

17:                                               ; preds = %2
  %.not9 = icmp eq i32 %9, 0
  br i1 %.not9, label %23, label %..thread_crit_edge

..thread_crit_edge:                               ; preds = %17
  %.pre = load ptr, ptr %7, align 8, !tbaa !31
  %.phi.trans.insert = getelementptr inbounds nuw i8, ptr %7, i64 16
  %.pre11 = load i32, ptr %.phi.trans.insert, align 8, !tbaa !34
  %.pre12 = zext i32 %.pre11 to i64
  br label %.thread

.thread:                                          ; preds = %..thread_crit_edge, %11
  %.pre-phi = phi i64 [ %.pre12, %..thread_crit_edge ], [ %15, %11 ]
  %18 = phi ptr [ %.pre, %..thread_crit_edge ], [ %12, %11 ]
  %19 = getelementptr inbounds nuw i8, ptr %18, i64 %.pre-phi
  %20 = load i8, ptr %19, align 1, !tbaa !35
  %21 = and i8 %20, 127
  %22 = icmp eq i8 %21, 4
  br i1 %22, label %24, label %23

23:                                               ; preds = %.thread, %17
  br label %24

24:                                               ; preds = %.thread, %11, %23
  %.0 = phi i32 [ 0, %23 ], [ 1, %11 ], [ 1, %.thread ]
  ret i32 %.0
}